; Function Attrs: nounwind sspstrong uwtable
define dso_local void @grabbag__replaygain_get_title(ptr noundef writeonly captures(none) initializes((0, 4)) %0, ptr noundef writeonly captures(none) initializes((0, 4)) %1) local_unnamed_addr #0 {
  %3 = tail call float @GetTitleGain() #14
  store float %3, ptr %0, align 4, !tbaa !13
  %4 = load double, ptr @title_peak_, align 8, !tbaa !4
  %5 = fptrunc double %4 to float
  store float %5, ptr %1, align 4, !tbaa !13
  store double 0.000000e+00, ptr @title_peak_, align 8, !tbaa !4
  ret void
}